target datalayout = "e-m:e-p270:32:32-p271:32:32-p272:64:64-i64:64-i128:128-f80:128-n8:16:32:64-S128"
target triple = "x86_64-pc-linux-gnu"

%struct.opj_jp2 = type { ptr, ptr, ptr, i32, i32, i32, i32, i32, i32, i32, i32, i32, i32, i32, i32, i32, i32, ptr, ptr, i64, i64, i32, i32, i32, %struct.opj_jp2_color, i32, i8, i8 }
%struct.opj_jp2_color = type { ptr, i32, ptr, ptr, i8 }

@.str = private unnamed_addr constant [49 x i8] c"Failed to decode the codestream in the JP2 file\0A\00", align 1

; Function Attrs: nounwind uwtable
define hidden i32 @opj_jp2_decode(ptr noundef %0, ptr noundef %1, ptr noundef %2, ptr noundef %3) #0 {
  %5 = alloca i32, align 4
  %6 = alloca ptr, align 8
  %7 = alloca ptr, align 8
  %8 = alloca ptr, align 8
  %9 = alloca ptr, align 8
  store ptr %0, ptr %6, align 8, !tbaa !3
  store ptr %1, ptr %7, align 8, !tbaa !8
  store ptr %2, ptr %8, align 8, !tbaa !10
  store ptr %3, ptr %9, align 8, !tbaa !12
  %10 = load ptr, ptr %8, align 8, !tbaa !10
  %11 = icmp ne ptr %10, null
  br i1 %11, label %13, label %12

12:                                               ; preds = %4
  store i32 0, ptr %5, align 4
  br label %30

13:                                               ; preds = %4
  %14 = load ptr, ptr %6, align 8, !tbaa !3
  %15 = getelementptr inbounds nuw %struct.opj_jp2, ptr %14, i32 0, i32 0
  %16 = load ptr, ptr %15, align 8, !tbaa !14
  %17 = load ptr, ptr %7, align 8, !tbaa !8
  %18 = load ptr, ptr %8, align 8, !tbaa !10
  %19 = load ptr, ptr %9, align 8, !tbaa !12
  %20 = call i32 @opj_j2k_decode(ptr noundef %16, ptr noundef %17, ptr noundef %18, ptr noundef %19)
  %21 = icmp ne i32 %20, 0
  br i1 %21, label %25, label %22

22:                                               ; preds = %13
  %23 = load ptr, ptr %9, align 8, !tbaa !12
  %24 = call i32 (ptr, i32, ptr, ...) @opj_event_msg(ptr noundef %23, i32 noundef 1, ptr noundef @.str)
  store i32 0, ptr %5, align 4
  br label %30

25:                                               ; preds = %13
  %26 = load ptr, ptr %6, align 8, !tbaa !3
  %27 = load ptr, ptr %8, align 8, !tbaa !10
  %28 = load ptr, ptr %9, align 8, !tbaa !12
  %29 = call i32 @opj_jp2_apply_color_postprocessing(ptr noundef %26, ptr noundef %27, ptr noundef %28)
  store i32 %29, ptr %5, align 4
  br label %30

30:                                               ; preds = %25, %22, %12
  %31 = load i32, ptr %5, align 4
  ret i32 %31
}