; Function Attrs: nounwind uwtable
define hidden range(i32 0, 2) i32 @opj_jp2_decode(ptr noundef captures(none) %0, ptr noundef %1, ptr noundef %2, ptr noundef %3) local_unnamed_addr #0 {
  %.not = icmp eq ptr %2, null
  br i1 %.not, label %12, label %5

5:                                                ; preds = %4
  %6 = load ptr, ptr %0, align 8, !tbaa !3
  %7 = tail call i32 @opj_j2k_decode(ptr noundef %6, ptr noundef %1, ptr noundef nonnull %2, ptr noundef %3) #6
  %.not10 = icmp eq i32 %7, 0
  br i1 %.not10, label %8, label %10

8:                                                ; preds = %5
  %9 = tail call i32 (ptr, i32, ptr, ...) @opj_event_msg(ptr noundef %3, i32 noundef 1, ptr noundef nonnull @.str) #6
  br label %12

10:                                               ; preds = %5
  %11 = tail call fastcc i32 @opj_jp2_apply_color_postprocessing(ptr noundef nonnull %0, ptr noundef %2, ptr noundef %3)
  br label %12

12:                                               ; preds = %4, %10, %8
  %.0 = phi i32 [ %11, %10 ], [ 0, %8 ], [ 0, %4 ]
  ret i32 %.0
}